; Function Attrs: mustprogress nounwind uwtable
define void @_ZN15ProfileTreeViewD2Ev(ptr noundef nonnull align 8 dereferenceable(48) %0) unnamed_addr #5 align 2 {
  store ptr getelementptr inbounds ({ [101 x ptr], [10 x ptr] }, ptr @_ZTV15ProfileTreeView, i64 0, i32 0, i64 2), ptr %0, align 8
  %2 = getelementptr inbounds i8, ptr %0, i64 16
  store ptr getelementptr inbounds ({ [101 x ptr], [10 x ptr] }, ptr @_ZTV15ProfileTreeView, i64 0, i32 1, i64 2), ptr %2, align 8
  %3 = getelementptr inbounds i8, ptr %0, i64 40
  %4 = load ptr, ptr %3, align 8
  %5 = icmp eq ptr %4, null
  br i1 %5, label %10, label %6

6:                                                ; preds = %1
  %7 = load ptr, ptr %4, align 8
  %8 = getelementptr inbounds i8, ptr %7, i64 32
  %9 = load ptr, ptr %8, align 8
  tail call void %9(ptr noundef nonnull align 8 dereferenceable(48) %4) #10
  br label %10

10:                                               ; preds = %6, %1
  tail call void @_ZN9QTreeViewD2Ev(ptr noundef nonnull align 8 dereferenceable(40) %0) #10
  ret void
}